target datalayout = "e-m:e-p270:32:32-p271:32:32-p272:64:64-i64:64-i128:128-f80:128-n8:16:32:64-S128"
target triple = "x86_64-pc-linux-gnu"

%struct.pointf_s = type { double, double }

; Function Attrs: nounwind uwtable
define internal double @arrow_length_crow(double noundef %0, double noundef %1, double noundef %2, i32 noundef %3) #0 {
  %5 = alloca double, align 8
  %6 = alloca double, align 8
  %7 = alloca double, align 8
  %8 = alloca i32, align 4
  %9 = alloca [9 x %struct.pointf_s], align 16
  %10 = alloca %struct.pointf_s, align 8
  %11 = alloca %struct.pointf_s, align 8
  %12 = alloca %struct.pointf_s, align 8
  %13 = alloca %struct.pointf_s, align 8
  %14 = alloca %struct.pointf_s, align 8
  %15 = alloca %struct.pointf_s, align 8
  %16 = alloca %struct.pointf_s, align 8
  %17 = alloca double, align 8
  %18 = alloca double, align 8
  %19 = alloca double, align 8
  %20 = alloca double, align 8
  %21 = alloca double, align 8
  %22 = alloca double, align 8
  %23 = alloca double, align 8
  %24 = alloca double, align 8
  %25 = alloca double, align 8
  store double %0, ptr %5, align 8, !tbaa !53
  store double %1, ptr %6, align 8, !tbaa !53
  store double %2, ptr %7, align 8, !tbaa !53
  store i32 %3, ptr %8, align 4, !tbaa !10
  call void @llvm.lifetime.start.p0(i64 144, ptr %9) #9
  call void @llvm.lifetime.start.p0(i64 16, ptr %10) #9
  call void @llvm.memset.p0.i64(ptr align 8 %10, i8 0, i64 16, i1 false)
  call void @llvm.lifetime.start.p0(i64 16, ptr %11) #9
  %26 = getelementptr inbounds nuw %struct.pointf_s, ptr %11, i32 0, i32 0
  %27 = load double, ptr %5, align 8, !tbaa !53
  %28 = load double, ptr %6, align 8, !tbaa !53
  %29 = fmul double %27, %28
  %30 = fmul double %29, 1.000000e+01
  store double %30, ptr %26, align 8, !tbaa !57
  %31 = getelementptr inbounds nuw %struct.pointf_s, ptr %11, i32 0, i32 1
  store double 0.000000e+00, ptr %31, align 8, !tbaa !58
  call void @llvm.lifetime.start.p0(i64 16, ptr %12) #9
  %32 = load double, ptr %6, align 8, !tbaa !53
  %33 = load double, ptr %7, align 8, !tbaa !53
  %34 = load i32, ptr %8, align 4, !tbaa !10
  %35 = getelementptr inbounds [9 x %struct.pointf_s], ptr %9, i64 0, i64 0
  %36 = getelementptr inbounds nuw { double, double }, ptr %10, i32 0, i32 0
  %37 = load double, ptr %36, align 8
  %38 = getelementptr inbounds nuw { double, double }, ptr %10, i32 0, i32 1
  %39 = load double, ptr %38, align 8
  %40 = getelementptr inbounds nuw { double, double }, ptr %11, i32 0, i32 0
  %41 = load double, ptr %40, align 8
  %42 = getelementptr inbounds nuw { double, double }, ptr %11, i32 0, i32 1
  %43 = load double, ptr %42, align 8
  %44 = call { double, double } @arrow_type_crow0(double %37, double %39, double %41, double %43, double noundef %32, double noundef %33, i32 noundef %34, ptr noundef %35)
  %45 = getelementptr inbounds nuw { double, double }, ptr %12, i32 0, i32 0
  %46 = extractvalue { double, double } %44, 0
  store double %46, ptr %45, align 8
  %47 = getelementptr inbounds nuw { double, double }, ptr %12, i32 0, i32 1
  %48 = extractvalue { double, double } %44, 1
  store double %48, ptr %47, align 8
  call void @llvm.lifetime.start.p0(i64 16, ptr %13) #9
  %49 = getelementptr inbounds [9 x %struct.pointf_s], ptr %9, i64 0, i64 1
  call void @llvm.memcpy.p0.p0.i64(ptr align 8 %13, ptr align 16 %49, i64 16, i1 false), !tbaa.struct !56
  call void @llvm.lifetime.start.p0(i64 16, ptr %14) #9
  %50 = getelementptr inbounds [9 x %struct.pointf_s], ptr %9, i64 0, i64 7
  call void @llvm.memcpy.p0.p0.i64(ptr align 8 %14, ptr align 16 %50, i64 16, i1 false), !tbaa.struct !56
  call void @llvm.lifetime.start.p0(i64 16, ptr %15) #9
  %51 = getelementptr inbounds [9 x %struct.pointf_s], ptr %9, i64 0, i64 0
  call void @llvm.memcpy.p0.p0.i64(ptr align 8 %15, ptr align 16 %51, i64 16, i1 false), !tbaa.struct !56
  call void @llvm.lifetime.start.p0(i64 16, ptr %16) #9
  %52 = getelementptr inbounds [9 x %struct.pointf_s], ptr %9, i64 0, i64 3
  call void @llvm.memcpy.p0.p0.i64(ptr align 8 %16, ptr align 16 %52, i64 16, i1 false), !tbaa.struct !56
  call void @llvm.lifetime.start.p0(i64 8, ptr %17) #9
  %53 = getelementptr inbounds nuw %struct.pointf_s, ptr %12, i32 0, i32 0
  %54 = load double, ptr %53, align 8, !tbaa !57
  store double %54, ptr %17, align 8, !tbaa !53
  call void @llvm.lifetime.start.p0(i64 8, ptr %18) #9
  %55 = load double, ptr %17, align 8, !tbaa !53
  %56 = getelementptr inbounds nuw %struct.pointf_s, ptr %13, i32 0, i32 0
  %57 = load double, ptr %56, align 8, !tbaa !57
  %58 = getelementptr inbounds nuw %struct.pointf_s, ptr %16, i32 0, i32 0
  %59 = load double, ptr %58, align 8, !tbaa !57
  %60 = fsub double %57, %59
  %61 = fsub double %55, %60
  store double %61, ptr %18, align 8, !tbaa !53
  call void @llvm.lifetime.start.p0(i64 8, ptr %19) #9
  %62 = getelementptr inbounds nuw %struct.pointf_s, ptr %13, i32 0, i32 0
  %63 = load double, ptr %62, align 8, !tbaa !57
  %64 = getelementptr inbounds nuw %struct.pointf_s, ptr %15, i32 0, i32 0
  %65 = load double, ptr %64, align 8, !tbaa !57
  %66 = fsub double %63, %65
  %67 = call double @llvm.fabs.f64(double %66)
  store double %67, ptr %19, align 8, !tbaa !53
  call void @llvm.lifetime.start.p0(i64 8, ptr %20) #9
  %68 = getelementptr inbounds nuw %struct.pointf_s, ptr %14, i32 0, i32 1
  %69 = load double, ptr %68, align 8, !tbaa !58
  %70 = getelementptr inbounds nuw %struct.pointf_s, ptr %13, i32 0, i32 1
  %71 = load double, ptr %70, align 8, !tbaa !58
  %72 = fsub double %69, %71
  store double %72, ptr %20, align 8, !tbaa !53
  call void @llvm.lifetime.start.p0(i64 8, ptr %21) #9
  %73 = load double, ptr %20, align 8, !tbaa !53
  %74 = load double, ptr %18, align 8, !tbaa !53
  %75 = fmul double %73, %74
  %76 = load double, ptr %19, align 8, !tbaa !53
  %77 = fdiv double %75, %76
  store double %77, ptr %21, align 8, !tbaa !53
  call void @llvm.lifetime.start.p0(i64 8, ptr %22) #9
  %78 = load double, ptr %7, align 8, !tbaa !53
  %79 = fdiv double %78, 2.000000e+00
  store double %79, ptr %22, align 8, !tbaa !53
  call void @llvm.lifetime.start.p0(i64 8, ptr %23) #9
  %80 = load double, ptr %18, align 8, !tbaa !53
  %81 = load double, ptr %7, align 8, !tbaa !53
  %82 = fmul double %80, %81
  %83 = load double, ptr %21, align 8, !tbaa !53
  %84 = fdiv double %82, %83
  store double %84, ptr %23, align 8, !tbaa !53
  call void @llvm.lifetime.start.p0(i64 8, ptr %24) #9
  %85 = load double, ptr %23, align 8, !tbaa !53
  store double %85, ptr %24, align 8, !tbaa !53
  call void @llvm.lifetime.start.p0(i64 8, ptr %25) #9
  %86 = load i32, ptr %8, align 4, !tbaa !10
  %87 = and i32 %86, 32
  %88 = icmp ne i32 %87, 0
  br i1 %88, label %89, label %91

89:                                               ; preds = %4
  %90 = load double, ptr %22, align 8, !tbaa !53
  br label %93

91:                                               ; preds = %4
  %92 = load double, ptr %24, align 8, !tbaa !53
  br label %93

93:                                               ; preds = %91, %89
  %94 = phi double [ %90, %89 ], [ %92, %91 ]
  store double %94, ptr %25, align 8, !tbaa !53
  %95 = load double, ptr %17, align 8, !tbaa !53
  %96 = load double, ptr %25, align 8, !tbaa !53
  %97 = fsub double %95, %96
  call void @llvm.lifetime.end.p0(i64 8, ptr %25) #9
  call void @llvm.lifetime.end.p0(i64 8, ptr %24) #9
  call void @llvm.lifetime.end.p0(i64 8, ptr %23) #9
  call void @llvm.lifetime.end.p0(i64 8, ptr %22) #9
  call void @llvm.lifetime.end.p0(i64 8, ptr %21) #9
  call void @llvm.lifetime.end.p0(i64 8, ptr %20) #9
  call void @llvm.lifetime.end.p0(i64 8, ptr %19) #9
  call void @llvm.lifetime.end.p0(i64 8, ptr %18) #9
  call void @llvm.lifetime.end.p0(i64 8, ptr %17) #9
  call void @llvm.lifetime.end.p0(i64 16, ptr %16) #9
  call void @llvm.lifetime.end.p0(i64 16, ptr %15) #9
  call void @llvm.lifetime.end.p0(i64 16, ptr %14) #9
  call void @llvm.lifetime.end.p0(i64 16, ptr %13) #9
  call void @llvm.lifetime.end.p0(i64 16, ptr %12) #9
  call void @llvm.lifetime.end.p0(i64 16, ptr %11) #9
  call void @llvm.lifetime.end.p0(i64 16, ptr %10) #9
  call void @llvm.lifetime.end.p0(i64 144, ptr %9) #9
  ret double %97
}