; Function Attrs: mustprogress nofree nounwind willreturn memory(write) uwtable
define internal double @arrow_length_crow(double noundef %0, double noundef %1, double noundef %2, i32 noundef %3) #6 {
  %5 = alloca [9 x %struct.pointf_s], align 16
  call void @llvm.lifetime.start.p0(i64 144, ptr nonnull %5) #12
  %6 = fmul double %0, %1
  %7 = fmul double %6, 1.000000e+01
  %8 = call fastcc { double, double } @arrow_type_crow0(double 0.000000e+00, double 0.000000e+00, double %7, double 0.000000e+00, double noundef %1, double noundef %2, i32 noundef %3, ptr noundef %5)
  %9 = extractvalue { double, double } %8, 0
  %10 = getelementptr inbounds nuw i8, ptr %5, i64 16
  %.sroa.014.0.copyload = load double, ptr %10, align 16, !tbaa !55
  %.sroa.5.0..sroa_idx = getelementptr inbounds nuw i8, ptr %5, i64 24
  %.sroa.5.0.copyload = load double, ptr %.sroa.5.0..sroa_idx, align 8, !tbaa !55
  %.sroa.3.0..sroa_idx = getelementptr inbounds nuw i8, ptr %5, i64 120
  %.sroa.3.0.copyload = load double, ptr %.sroa.3.0..sroa_idx, align 8, !tbaa !55
  %.sroa.011.0.copyload = load double, ptr %5, align 16, !tbaa !55
  %11 = getelementptr inbounds nuw i8, ptr %5, i64 48
  %.sroa.0.0.copyload = load double, ptr %11, align 16, !tbaa !55
  %12 = fsub double %.sroa.014.0.copyload, %.sroa.0.0.copyload
  %13 = fsub double %9, %12
  %14 = fsub double %.sroa.014.0.copyload, %.sroa.011.0.copyload
  %15 = tail call double @llvm.fabs.f64(double %14)
  %16 = fsub double %.sroa.3.0.copyload, %.sroa.5.0.copyload
  %17 = fmul double %16, %13
  %18 = fdiv double %17, %15
  %19 = fmul double %2, 5.000000e-01
  %20 = fmul double %2, %13
  %21 = fdiv double %20, %18
  %22 = and i32 %3, 32
  %.not = icmp eq i32 %22, 0
  %23 = select i1 %.not, double %21, double %19
  %24 = fsub double %9, %23
  call void @llvm.lifetime.end.p0(i64 144, ptr nonnull %5) #12
  ret double %24
}